target datalayout = "e-m:e-p270:32:32-p271:32:32-p272:64:64-i64:64-i128:128-f80:128-n8:16:32:64-S128"
target triple = "x86_64-pc-linux-gnu"

%struct.nstime_t = type { i64, i32 }
%struct._io_graph_item_t = type { i32, i64, i64, i64, i64, i64, float, float, float, double, double, double, %struct.nstime_t, %struct.nstime_t, %struct.nstime_t, i32, i32, i32 }
%struct._capture_file = type { ptr, i32, ptr, ptr, i32, i32, i32, i64, i16, i32, i32, i32, ptr, i32, i64, i32, i32, i32, i32, i32, i32, %struct.nstime_t, i32, ptr, ptr, ptr, i32, i32, i32, ptr, i32, i32, i32, i32, i32, i32, i32, i32, ptr, i32, i32, i32, %struct.packet_provider_data, i32, i32, %struct.epan_column_info, ptr, ptr, ptr, %struct.wtap_rec, %struct.Buffer, ptr, i64, i32 }
%struct.packet_provider_data = type { ptr, ptr, ptr, ptr, ptr, ptr }
%struct.epan_column_info = type { ptr, i32, ptr, ptr, ptr, %struct.col_expr_t, i32, ptr }
%struct.col_expr_t = type { ptr, ptr }
%struct.wtap_rec = type { i32, i32, i32, %struct.nstime_t, i32, %struct.nstime_t, i32, %union.anon, ptr, i32, %struct.Buffer }
%union.anon = type { %struct.wtap_packet_header }
%struct.wtap_packet_header = type { i32, i32, i32, i32, %union.wtap_pseudo_header }
%union.wtap_pseudo_header = type { %struct.erf_mc_phdr }
%struct.erf_mc_phdr = type { %struct.erf_phdr, [16 x %struct.erf_ehdr], %union.anon.2 }
%struct.erf_phdr = type { i64, i8, i8, i16, i16, i16 }
%struct.erf_ehdr = type { i64 }
%union.anon.2 = type { i32 }
%struct.Buffer = type { ptr, i64, i64, i64 }

; Function Attrs: nounwind uwtable
define hidden double @get_io_graph_item(ptr noundef %0, i32 noundef %1, i32 noundef %2, i32 noundef %3, ptr noundef %4, i32 noundef %5, i32 noundef %6) #0 {
  %8 = alloca double, align 8
  %9 = alloca ptr, align 8
  %10 = alloca i32, align 4
  %11 = alloca i32, align 4
  %12 = alloca i32, align 4
  %13 = alloca ptr, align 8
  %14 = alloca i32, align 4
  %15 = alloca i32, align 4
  %16 = alloca double, align 8
  %17 = alloca i32, align 4
  %18 = alloca ptr, align 8
  %19 = alloca i32, align 4
  store ptr %0, ptr %9, align 8
  store i32 %1, ptr %10, align 4
  store i32 %2, ptr %11, align 4
  store i32 %3, ptr %12, align 4
  store ptr %4, ptr %13, align 8
  store i32 %5, ptr %14, align 4
  store i32 %6, ptr %15, align 4
  store double 0.000000e+00, ptr %16, align 8
  %20 = load ptr, ptr %9, align 8
  %21 = load i32, ptr %11, align 4
  %22 = sext i32 %21 to i64
  %23 = getelementptr %struct._io_graph_item_t, ptr %20, i64 %22
  store ptr %23, ptr %18, align 8
  %24 = load i32, ptr %10, align 4
  switch i32 %24, label %51 [
    i32 0, label %25
    i32 1, label %30
    i32 2, label %35
    i32 4, label %41
    i32 5, label %46
  ]

25:                                               ; preds = %7
  %26 = load ptr, ptr %18, align 8
  %27 = getelementptr inbounds %struct._io_graph_item_t, ptr %26, i32 0, i32 0
  %28 = load i32, ptr %27, align 8
  %29 = uitofp i32 %28 to double
  store double %29, ptr %8, align 8
  br label %190

30:                                               ; preds = %7
  %31 = load ptr, ptr %18, align 8
  %32 = getelementptr inbounds %struct._io_graph_item_t, ptr %31, i32 0, i32 1
  %33 = load i64, ptr %32, align 8
  %34 = uitofp i64 %33 to double
  store double %34, ptr %8, align 8
  br label %190

35:                                               ; preds = %7
  %36 = load ptr, ptr %18, align 8
  %37 = getelementptr inbounds %struct._io_graph_item_t, ptr %36, i32 0, i32 1
  %38 = load i64, ptr %37, align 8
  %39 = mul i64 %38, 8
  %40 = uitofp i64 %39 to double
  store double %40, ptr %8, align 8
  br label %190

41:                                               ; preds = %7
  %42 = load ptr, ptr %18, align 8
  %43 = getelementptr inbounds %struct._io_graph_item_t, ptr %42, i32 0, i32 0
  %44 = load i32, ptr %43, align 8
  %45 = uitofp i32 %44 to double
  store double %45, ptr %8, align 8
  br label %190

46:                                               ; preds = %7
  %47 = load ptr, ptr %18, align 8
  %48 = getelementptr inbounds %struct._io_graph_item_t, ptr %47, i32 0, i32 2
  %49 = load i64, ptr %48, align 8
  %50 = uitofp i64 %49 to double
  store double %50, ptr %8, align 8
  br label %190

51:                                               ; preds = %7
  br label %52

52:                                               ; preds = %51
  %53 = load i32, ptr %12, align 4
  %54 = icmp slt i32 %53, 0
  br i1 %54, label %55, label %56

55:                                               ; preds = %52
  store double 0.000000e+00, ptr %8, align 8
  br label %190

56:                                               ; preds = %52
  %57 = load i32, ptr %12, align 4
  %58 = call i32 @proto_registrar_get_ftype(i32 noundef %57)
  store i32 %58, ptr %17, align 4
  %59 = load i32, ptr %17, align 4
  switch i32 %59, label %187 [
    i32 12, label %60
    i32 13, label %60
    i32 14, label %60
    i32 15, label %60
    i32 16, label %60
    i32 17, label %60
    i32 18, label %60
    i32 19, label %60
    i32 4, label %60
    i32 5, label %60
    i32 6, label %60
    i32 7, label %60
    i32 8, label %60
    i32 9, label %60
    i32 10, label %60
    i32 11, label %60
    i32 23, label %60
    i32 22, label %92
    i32 25, label %128
  ]

60:                                               ; preds = %56, %56, %56, %56, %56, %56, %56, %56, %56, %56, %56, %56, %56, %56, %56, %56, %56
  %61 = load i32, ptr %10, align 4
  switch i32 %61, label %90 [
    i32 3, label %62
    i32 6, label %66
    i32 7, label %70
    i32 8, label %74
  ]

62:                                               ; preds = %60
  %63 = load ptr, ptr %18, align 8
  %64 = getelementptr inbounds %struct._io_graph_item_t, ptr %63, i32 0, i32 11
  %65 = load double, ptr %64, align 8
  store double %65, ptr %16, align 8
  br label %91

66:                                               ; preds = %60
  %67 = load ptr, ptr %18, align 8
  %68 = getelementptr inbounds %struct._io_graph_item_t, ptr %67, i32 0, i32 9
  %69 = load double, ptr %68, align 8
  store double %69, ptr %16, align 8
  br label %91

70:                                               ; preds = %60
  %71 = load ptr, ptr %18, align 8
  %72 = getelementptr inbounds %struct._io_graph_item_t, ptr %71, i32 0, i32 10
  %73 = load double, ptr %72, align 8
  store double %73, ptr %16, align 8
  br label %91

74:                                               ; preds = %60
  %75 = load ptr, ptr %18, align 8
  %76 = getelementptr inbounds %struct._io_graph_item_t, ptr %75, i32 0, i32 2
  %77 = load i64, ptr %76, align 8
  %78 = icmp ne i64 %77, 0
  br i1 %78, label %79, label %88

79:                                               ; preds = %74
  %80 = load ptr, ptr %18, align 8
  %81 = getelementptr inbounds %struct._io_graph_item_t, ptr %80, i32 0, i32 11
  %82 = load double, ptr %81, align 8
  %83 = load ptr, ptr %18, align 8
  %84 = getelementptr inbounds %struct._io_graph_item_t, ptr %83, i32 0, i32 2
  %85 = load i64, ptr %84, align 8
  %86 = uitofp i64 %85 to double
  %87 = fdiv double %82, %86
  store double %87, ptr %16, align 8
  br label %89

88:                                               ; preds = %74
  store double 0.000000e+00, ptr %16, align 8
  br label %89

89:                                               ; preds = %88, %79
  br label %91

90:                                               ; preds = %60
  br label %91

91:                                               ; preds = %90, %89, %70, %66, %62
  br label %188

92:                                               ; preds = %56
  %93 = load i32, ptr %10, align 4
  switch i32 %93, label %126 [
    i32 3, label %94
    i32 6, label %99
    i32 7, label %104
    i32 8, label %109
  ]

94:                                               ; preds = %92
  %95 = load ptr, ptr %18, align 8
  %96 = getelementptr inbounds %struct._io_graph_item_t, ptr %95, i32 0, i32 8
  %97 = load float, ptr %96, align 8
  %98 = fpext float %97 to double
  store double %98, ptr %16, align 8
  br label %127

99:                                               ; preds = %92
  %100 = load ptr, ptr %18, align 8
  %101 = getelementptr inbounds %struct._io_graph_item_t, ptr %100, i32 0, i32 6
  %102 = load float, ptr %101, align 8
  %103 = fpext float %102 to double
  store double %103, ptr %16, align 8
  br label %127

104:                                              ; preds = %92
  %105 = load ptr, ptr %18, align 8
  %106 = getelementptr inbounds %struct._io_graph_item_t, ptr %105, i32 0, i32 7
  %107 = load float, ptr %106, align 4
  %108 = fpext float %107 to double
  store double %108, ptr %16, align 8
  br label %127

109:                                              ; preds = %92
  %110 = load ptr, ptr %18, align 8
  %111 = getelementptr inbounds %struct._io_graph_item_t, ptr %110, i32 0, i32 2
  %112 = load i64, ptr %111, align 8
  %113 = icmp ne i64 %112, 0
  br i1 %113, label %114, label %124

114:                                              ; preds = %109
  %115 = load ptr, ptr %18, align 8
  %116 = getelementptr inbounds %struct._io_graph_item_t, ptr %115, i32 0, i32 8
  %117 = load float, ptr %116, align 8
  %118 = fpext float %117 to double
  %119 = load ptr, ptr %18, align 8
  %120 = getelementptr inbounds %struct._io_graph_item_t, ptr %119, i32 0, i32 2
  %121 = load i64, ptr %120, align 8
  %122 = uitofp i64 %121 to double
  %123 = fdiv double %118, %122
  store double %123, ptr %16, align 8
  br label %125

124:                                              ; preds = %109
  store double 0.000000e+00, ptr %16, align 8
  br label %125

125:                                              ; preds = %124, %114
  br label %127

126:                                              ; preds = %92
  br label %127

127:                                              ; preds = %126, %125, %104, %99, %94
  br label %188

128:                                              ; preds = %56
  %129 = load i32, ptr %10, align 4
  switch i32 %129, label %185 [
    i32 6, label %130
    i32 7, label %134
    i32 3, label %138
    i32 8, label %142
    i32 9, label %158
  ]

130:                                              ; preds = %128
  %131 = load ptr, ptr %18, align 8
  %132 = getelementptr inbounds %struct._io_graph_item_t, ptr %131, i32 0, i32 12
  %133 = call double @nstime_to_sec(ptr noundef %132)
  store double %133, ptr %16, align 8
  br label %186

134:                                              ; preds = %128
  %135 = load ptr, ptr %18, align 8
  %136 = getelementptr inbounds %struct._io_graph_item_t, ptr %135, i32 0, i32 13
  %137 = call double @nstime_to_sec(ptr noundef %136)
  store double %137, ptr %16, align 8
  br label %186

138:                                              ; preds = %128
  %139 = load ptr, ptr %18, align 8
  %140 = getelementptr inbounds %struct._io_graph_item_t, ptr %139, i32 0, i32 14
  %141 = call double @nstime_to_sec(ptr noundef %140)
  store double %141, ptr %16, align 8
  br label %186

142:                                              ; preds = %128
  %143 = load ptr, ptr %18, align 8
  %144 = getelementptr inbounds %struct._io_graph_item_t, ptr %143, i32 0, i32 2
  %145 = load i64, ptr %144, align 8
  %146 = icmp ne i64 %145, 0
  br i1 %146, label %147, label %156

147:                                              ; preds = %142
  %148 = load ptr, ptr %18, align 8
  %149 = getelementptr inbounds %struct._io_graph_item_t, ptr %148, i32 0, i32 14
  %150 = call double @nstime_to_sec(ptr noundef %149)
  %151 = load ptr, ptr %18, align 8
  %152 = getelementptr inbounds %struct._io_graph_item_t, ptr %151, i32 0, i32 2
  %153 = load i64, ptr %152, align 8
  %154 = uitofp i64 %153 to double
  %155 = fdiv double %150, %154
  store double %155, ptr %16, align 8
  br label %157

156:                                              ; preds = %142
  store double 0.000000e+00, ptr %16, align 8
  br label %157

157:                                              ; preds = %156, %147
  br label %186

158:                                              ; preds = %128
  %159 = load i32, ptr %11, align 4
  %160 = load i32, ptr %15, align 4
  %161 = icmp eq i32 %159, %160
  br i1 %161, label %162, label %176

162:                                              ; preds = %158
  %163 = load ptr, ptr %13, align 8
  %164 = icmp ne ptr %163, null
  br i1 %164, label %165, label %176

165:                                              ; preds = %162
  %166 = load ptr, ptr %13, align 8
  %167 = getelementptr inbounds %struct._capture_file, ptr %166, i32 0, i32 21
  %168 = call double @nstime_to_msec(ptr noundef %167)
  %169 = fadd double %168, 5.000000e-01
  %170 = fptoui double %169 to i32
  store i32 %170, ptr %19, align 4
  %171 = load i32, ptr %14, align 4
  %172 = load i32, ptr %11, align 4
  %173 = mul i32 %171, %172
  %174 = load i32, ptr %19, align 4
  %175 = sub i32 %174, %173
  store i32 %175, ptr %19, align 4
  br label %178

176:                                              ; preds = %162, %158
  %177 = load i32, ptr %14, align 4
  store i32 %177, ptr %19, align 4
  br label %178

178:                                              ; preds = %176, %165
  %179 = load ptr, ptr %18, align 8
  %180 = getelementptr inbounds %struct._io_graph_item_t, ptr %179, i32 0, i32 14
  %181 = call double @nstime_to_msec(ptr noundef %180)
  %182 = load i32, ptr %19, align 4
  %183 = uitofp i32 %182 to double
  %184 = fdiv double %181, %183
  store double %184, ptr %16, align 8
  br label %186

185:                                              ; preds = %128
  br label %186

186:                                              ; preds = %185, %178, %157, %138, %134, %130
  br label %188

187:                                              ; preds = %56
  br label %188

188:                                              ; preds = %187, %186, %127, %91
  %189 = load double, ptr %16, align 8
  store double %189, ptr %8, align 8
  br label %190

190:                                              ; preds = %188, %55, %46, %41, %35, %30, %25
  %191 = load double, ptr %8, align 8
  ret double %191
}