; Function Attrs: nounwind uwtable
define hidden double @get_io_graph_item(ptr noundef %0, i32 noundef %1, i32 noundef %2, i32 noundef %3, ptr noundef %4, i32 noundef %5, i32 noundef %6) local_unnamed_addr #1 {
  %8 = sext i32 %2 to i64
  %9 = getelementptr %struct._io_graph_item_t, ptr %0, i64 %8
  switch i32 %1, label %29 [
    i32 0, label %10
    i32 1, label %13
    i32 2, label %17
    i32 4, label %22
    i32 5, label %25
  ]

10:                                               ; preds = %7
  %11 = load i32, ptr %9, align 8
  %12 = uitofp i32 %11 to double
  br label %107

13:                                               ; preds = %7
  %14 = getelementptr inbounds nuw i8, ptr %9, i64 8
  %15 = load i64, ptr %14, align 8
  %16 = uitofp i64 %15 to double
  br label %107

17:                                               ; preds = %7
  %18 = getelementptr inbounds nuw i8, ptr %9, i64 8
  %19 = load i64, ptr %18, align 8
  %20 = shl i64 %19, 3
  %21 = uitofp i64 %20 to double
  br label %107

22:                                               ; preds = %7
  %23 = load i32, ptr %9, align 8
  %24 = uitofp i32 %23 to double
  br label %107

25:                                               ; preds = %7
  %26 = getelementptr inbounds nuw i8, ptr %9, i64 16
  %27 = load i64, ptr %26, align 8
  %28 = uitofp i64 %27 to double
  br label %107

29:                                               ; preds = %7
  %30 = icmp slt i32 %3, 0
  br i1 %30, label %107, label %31

31:                                               ; preds = %29
  %32 = tail call i32 @proto_registrar_get_ftype(i32 noundef %3) #3
  switch i32 %32, label %107 [
    i32 12, label %33
    i32 13, label %33
    i32 14, label %33
    i32 15, label %33
    i32 16, label %33
    i32 17, label %33
    i32 18, label %33
    i32 19, label %33
    i32 4, label %33
    i32 5, label %33
    i32 6, label %33
    i32 7, label %33
    i32 8, label %33
    i32 9, label %33
    i32 10, label %33
    i32 11, label %33
    i32 23, label %33
    i32 22, label %51
    i32 25, label %73
  ]

33:                                               ; preds = %31, %31, %31, %31, %31, %31, %31, %31, %31, %31, %31, %31, %31, %31, %31, %31, %31
  switch i32 %1, label %107 [
    i32 3, label %34
    i32 6, label %37
    i32 7, label %40
    i32 8, label %43
  ]

34:                                               ; preds = %33
  %35 = getelementptr inbounds nuw i8, ptr %9, i64 80
  %36 = load double, ptr %35, align 8
  br label %107

37:                                               ; preds = %33
  %38 = getelementptr inbounds nuw i8, ptr %9, i64 64
  %39 = load double, ptr %38, align 8
  br label %107

40:                                               ; preds = %33
  %41 = getelementptr inbounds nuw i8, ptr %9, i64 72
  %42 = load double, ptr %41, align 8
  br label %107

43:                                               ; preds = %33
  %44 = getelementptr inbounds nuw i8, ptr %9, i64 16
  %45 = load i64, ptr %44, align 8
  %.not52 = icmp eq i64 %45, 0
  br i1 %.not52, label %107, label %46

46:                                               ; preds = %43
  %47 = getelementptr inbounds nuw i8, ptr %9, i64 80
  %48 = load double, ptr %47, align 8
  %49 = uitofp i64 %45 to double
  %50 = fdiv double %48, %49
  br label %107

51:                                               ; preds = %31
  switch i32 %1, label %107 [
    i32 3, label %52
    i32 6, label %56
    i32 7, label %60
    i32 8, label %64
  ]

52:                                               ; preds = %51
  %53 = getelementptr inbounds nuw i8, ptr %9, i64 56
  %54 = load float, ptr %53, align 8
  %55 = fpext float %54 to double
  br label %107

56:                                               ; preds = %51
  %57 = getelementptr inbounds nuw i8, ptr %9, i64 48
  %58 = load float, ptr %57, align 8
  %59 = fpext float %58 to double
  br label %107

60:                                               ; preds = %51
  %61 = getelementptr inbounds nuw i8, ptr %9, i64 52
  %62 = load float, ptr %61, align 4
  %63 = fpext float %62 to double
  br label %107

64:                                               ; preds = %51
  %65 = getelementptr inbounds nuw i8, ptr %9, i64 16
  %66 = load i64, ptr %65, align 8
  %.not51 = icmp eq i64 %66, 0
  br i1 %.not51, label %107, label %67

67:                                               ; preds = %64
  %68 = getelementptr inbounds nuw i8, ptr %9, i64 56
  %69 = load float, ptr %68, align 8
  %70 = fpext float %69 to double
  %71 = uitofp i64 %66 to double
  %72 = fdiv double %70, %71
  br label %107

73:                                               ; preds = %31
  switch i32 %1, label %107 [
    i32 6, label %74
    i32 7, label %77
    i32 3, label %80
    i32 8, label %83
    i32 9, label %92
  ]

74:                                               ; preds = %73
  %75 = getelementptr inbounds nuw i8, ptr %9, i64 88
  %76 = tail call double @nstime_to_sec(ptr noundef nonnull %75) #3
  br label %107

77:                                               ; preds = %73
  %78 = getelementptr inbounds nuw i8, ptr %9, i64 104
  %79 = tail call double @nstime_to_sec(ptr noundef nonnull %78) #3
  br label %107

80:                                               ; preds = %73
  %81 = getelementptr inbounds nuw i8, ptr %9, i64 120
  %82 = tail call double @nstime_to_sec(ptr noundef nonnull %81) #3
  br label %107

83:                                               ; preds = %73
  %84 = getelementptr inbounds nuw i8, ptr %9, i64 16
  %85 = load i64, ptr %84, align 8
  %.not = icmp eq i64 %85, 0
  br i1 %.not, label %107, label %86

86:                                               ; preds = %83
  %87 = getelementptr inbounds nuw i8, ptr %9, i64 120
  %88 = tail call double @nstime_to_sec(ptr noundef nonnull %87) #3
  %89 = load i64, ptr %84, align 8
  %90 = uitofp i64 %89 to double
  %91 = fdiv double %88, %90
  br label %107

92:                                               ; preds = %73
  %93 = icmp eq i32 %2, %6
  %94 = icmp ne ptr %4, null
  %or.cond = and i1 %94, %93
  br i1 %or.cond, label %95, label %102

95:                                               ; preds = %92
  %96 = getelementptr inbounds nuw i8, ptr %4, i64 120
  %97 = tail call double @nstime_to_msec(ptr noundef nonnull %96) #3
  %98 = fadd double %97, 5.000000e-01
  %99 = fptoui double %98 to i32
  %100 = mul i32 %5, %2
  %101 = sub i32 %99, %100
  br label %102

102:                                              ; preds = %92, %95
  %.0 = phi i32 [ %101, %95 ], [ %5, %92 ]
  %103 = getelementptr inbounds nuw i8, ptr %9, i64 120
  %104 = tail call double @nstime_to_msec(ptr noundef nonnull %103) #3
  %105 = uitofp i32 %.0 to double
  %106 = fdiv double %104, %105
  br label %107

107:                                              ; preds = %33, %46, %40, %37, %34, %51, %67, %60, %56, %52, %73, %86, %102, %80, %77, %74, %31, %43, %64, %83, %29, %25, %22, %17, %13, %10
  %.044 = phi double [ %28, %25 ], [ %24, %22 ], [ %21, %17 ], [ %16, %13 ], [ %12, %10 ], [ 0.000000e+00, %29 ], [ 0.000000e+00, %31 ], [ 0.000000e+00, %73 ], [ %106, %102 ], [ %91, %86 ], [ %82, %80 ], [ %79, %77 ], [ %76, %74 ], [ 0.000000e+00, %51 ], [ %72, %67 ], [ %63, %60 ], [ %59, %56 ], [ %55, %52 ], [ 0.000000e+00, %33 ], [ %50, %46 ], [ %42, %40 ], [ %39, %37 ], [ %36, %34 ], [ 0.000000e+00, %43 ], [ 0.000000e+00, %64 ], [ 0.000000e+00, %83 ]
  ret double %.044
}